target datalayout = "e-m:e-p270:32:32-p271:32:32-p272:64:64-i64:64-i128:128-f80:128-n8:16:32:64-S128"
target triple = "x86_64-pc-linux-gnu"

%struct.__loadu_si128 = type { <2 x i64> }
%struct.__storeu_si128 = type { <2 x i64> }

; Function Attrs: alwaysinline nounwind uwtable
define internal void @_mm_storeu_si128(ptr noundef %0, <2 x i64> noundef %1) #3 {
  %3 = alloca ptr, align 8
  %4 = alloca <2 x i64>, align 16
  store ptr %0, ptr %3, align 8, !tbaa !3
  store <2 x i64> %1, ptr %4, align 16, !tbaa !13
  %5 = load <2 x i64>, ptr %4, align 16, !tbaa !13
  %6 = load ptr, ptr %3, align 8, !tbaa !3
  %7 = getelementptr inbounds nuw %struct.__storeu_si128, ptr %6, i32 0, i32 0
  store <2 x i64> %5, ptr %7, align 1, !tbaa !13
  ret void
}

; Function Attrs: alwaysinline nounwind uwtable
define internal <2 x i64> @_mm_loadu_si128(ptr noundef %0) #3 {
  %2 = alloca ptr, align 8
  store ptr %0, ptr %2, align 8, !tbaa !3
  %3 = load ptr, ptr %2, align 8, !tbaa !3
  %4 = getelementptr inbounds nuw %struct.__loadu_si128, ptr %3, i32 0, i32 0
  %5 = load <2 x i64>, ptr %4, align 1, !tbaa !13
  ret <2 x i64> %5
}

; Function Attrs: nounwind uwtable
define internal void @VE16_SSE2(ptr noundef %0) #1 {
  %2 = alloca ptr, align 8
  %3 = alloca <2 x i64>, align 16
  %4 = alloca i32, align 4
  store ptr %0, ptr %2, align 8, !tbaa !9
  call void @llvm.lifetime.start.p0(i64 16, ptr %3) #9
  %5 = load ptr, ptr %2, align 8, !tbaa !9
  %6 = getelementptr inbounds i8, ptr %5, i64 -32
  %7 = call <2 x i64> @_mm_loadu_si128(ptr noundef %6)
  store <2 x i64> %7, ptr %3, align 16, !tbaa !13
  call void @llvm.lifetime.start.p0(i64 4, ptr %4) #9
  store i32 0, ptr %4, align 4, !tbaa !11
  br label %8

8:                                                ; preds = %18, %1
  %9 = load i32, ptr %4, align 4, !tbaa !11
  %10 = icmp slt i32 %9, 16
  br i1 %10, label %11, label %21

11:                                               ; preds = %8
  %12 = load ptr, ptr %2, align 8, !tbaa !9
  %13 = load i32, ptr %4, align 4, !tbaa !11
  %14 = mul nsw i32 %13, 32
  %15 = sext i32 %14 to i64
  %16 = getelementptr inbounds i8, ptr %12, i64 %15
  %17 = load <2 x i64>, ptr %3, align 16, !tbaa !13
  call void @_mm_storeu_si128(ptr noundef %16, <2 x i64> noundef %17)
  br label %18

18:                                               ; preds = %11
  %19 = load i32, ptr %4, align 4, !tbaa !11
  %20 = add nsw i32 %19, 1
  store i32 %20, ptr %4, align 4, !tbaa !11
  br label %8, !llvm.loop !21

21:                                               ; preds = %8
  call void @llvm.lifetime.end.p0(i64 4, ptr %4) #9
  call void @llvm.lifetime.end.p0(i64 16, ptr %3) #9
  ret void
}